; Function Attrs: mustprogress uwtable
define noundef nonnull align 8 dereferenceable(32) ptr @_ZNK5Ipopt11OptionsList9lowercaseERKNSt7__cxx1112basic_stringIcSt11char_traitsIcESaIcEEE(ptr noundef nonnull align 8 dereferenceable(112) %0, ptr noundef nonnull align 8 dereferenceable(32) %1) local_unnamed_addr #3 align 2 {
  %3 = getelementptr inbounds nuw i8, ptr %0, i64 80
  tail call void @_ZNSt7__cxx1112basic_stringIcSt11char_traitsIcESaIcEE9_M_assignERKS4_(ptr noundef nonnull align 8 dereferenceable(32) %3, ptr noundef nonnull align 8 dereferenceable(32) %1)
  %4 = getelementptr inbounds nuw i8, ptr %1, i64 8
  %5 = load i64, ptr %4, align 8, !tbaa !24
  %6 = trunc i64 %5 to i32
  %7 = icmp sgt i32 %6, 0
  br i1 %7, label %.lr.ph, label %._crit_edge

._crit_edge:                                      ; preds = %.lr.ph, %2
  ret ptr %3

.lr.ph:                                           ; preds = %2, %.lr.ph
  %indvars.iv = phi i64 [ %indvars.iv.next, %.lr.ph ], [ 0, %2 ]
  %8 = load ptr, ptr %1, align 8, !tbaa !17
  %9 = getelementptr inbounds nuw i8, ptr %8, i64 %indvars.iv
  %10 = load i8, ptr %9, align 1, !tbaa !25
  %11 = sext i8 %10 to i32
  %12 = tail call i32 @tolower(i32 noundef %11) #26
  %13 = trunc i32 %12 to i8
  %14 = load ptr, ptr %3, align 8, !tbaa !17
  %15 = getelementptr inbounds nuw i8, ptr %14, i64 %indvars.iv
  store i8 %13, ptr %15, align 1, !tbaa !25
  %indvars.iv.next = add nuw nsw i64 %indvars.iv, 1
  %16 = load i64, ptr %4, align 8, !tbaa !24
  %sext = shl i64 %16, 32
  %17 = ashr exact i64 %sext, 32
  %18 = icmp slt i64 %indvars.iv.next, %17
  br i1 %18, label %.lr.ph, label %._crit_edge, !llvm.loop !29
}